; Function Attrs: nounwind uwtable
define dso_local void @ExecForceStoreHeapTuple(ptr noundef %0, ptr noundef %1, i1 noundef zeroext %2) local_unnamed_addr #1 {
  %4 = getelementptr inbounds nuw i8, ptr %1, i64 8
  %5 = load ptr, ptr %4, align 8
  %6 = icmp eq ptr %5, @TTSOpsHeapTuple
  br i1 %6, label %7, label %29

7:                                                ; preds = %3
  %8 = getelementptr inbounds nuw i8, ptr %1, i64 4
  %9 = load i16, ptr %8, align 4
  %10 = and i16 %9, 4
  %.not.i.i.i = icmp eq i16 %10, 0
  br i1 %.not.i.i.i, label %tts_heap_clear.exit.i.i, label %11

11:                                               ; preds = %7
  %12 = getelementptr inbounds nuw i8, ptr %1, i64 64
  %13 = load ptr, ptr %12, align 8
  tail call void @heap_freetuple(ptr noundef %13) #14
  %14 = load i16, ptr %8, align 4
  br label %tts_heap_clear.exit.i.i

tts_heap_clear.exit.i.i:                          ; preds = %11, %7
  %15 = phi i16 [ %14, %11 ], [ %9, %7 ]
  %16 = getelementptr inbounds nuw i8, ptr %1, i64 6
  %17 = getelementptr inbounds nuw i8, ptr %1, i64 48
  store i16 -1, ptr %17, align 2
  %18 = getelementptr inbounds nuw i8, ptr %1, i64 50
  store i16 -1, ptr %18, align 2
  %19 = getelementptr inbounds nuw i8, ptr %1, i64 52
  store i16 0, ptr %19, align 2
  %20 = getelementptr inbounds nuw i8, ptr %1, i64 72
  %21 = getelementptr inbounds nuw i8, ptr %1, i64 64
  store i16 0, ptr %16, align 2
  store ptr %0, ptr %21, align 8
  store i32 0, ptr %20, align 8
  %22 = and i16 %15, -7
  store i16 %22, ptr %8, align 4
  %23 = getelementptr inbounds nuw i8, ptr %0, i64 4
  tail call void @llvm.memcpy.p0.p0.i64(ptr noundef nonnull align 8 dereferenceable(6) %17, ptr noundef nonnull align 4 dereferenceable(6) %23, i64 6, i1 false)
  br i1 %2, label %24, label %ExecStoreHeapTuple.exit

24:                                               ; preds = %tts_heap_clear.exit.i.i
  %25 = or disjoint i16 %22, 4
  store i16 %25, ptr %8, align 4
  br label %ExecStoreHeapTuple.exit

ExecStoreHeapTuple.exit:                          ; preds = %tts_heap_clear.exit.i.i, %24
  %26 = getelementptr inbounds nuw i8, ptr %0, i64 12
  %27 = load i32, ptr %26, align 4
  %28 = getelementptr inbounds nuw i8, ptr %1, i64 56
  store i32 %27, ptr %28, align 8
  br label %80

29:                                               ; preds = %3
  %30 = icmp eq ptr %5, @TTSOpsBufferHeapTuple
  br i1 %30, label %31, label %60

31:                                               ; preds = %29
  %32 = getelementptr inbounds nuw i8, ptr %1, i64 4
  %33 = load i16, ptr %32, align 4
  %34 = and i16 %33, 4
  %.not.i = icmp eq i16 %34, 0
  br i1 %.not.i, label %40, label %35

35:                                               ; preds = %31
  %36 = getelementptr inbounds nuw i8, ptr %1, i64 64
  %37 = load ptr, ptr %36, align 8
  tail call void @heap_freetuple(ptr noundef %37) #14
  %38 = load i16, ptr %32, align 4
  %39 = and i16 %38, -5
  store i16 %39, ptr %32, align 4
  br label %40

40:                                               ; preds = %35, %31
  %41 = phi i16 [ %39, %35 ], [ %33, %31 ]
  %42 = getelementptr inbounds nuw i8, ptr %1, i64 104
  %43 = load i32, ptr %42, align 8
  %.not12.i = icmp eq i32 %43, 0
  br i1 %.not12.i, label %tts_buffer_heap_clear.exit, label %44

44:                                               ; preds = %40
  tail call void @ReleaseBuffer(i32 noundef %43) #14
  %.pre.i = load i16, ptr %32, align 4
  br label %tts_buffer_heap_clear.exit

tts_buffer_heap_clear.exit:                       ; preds = %40, %44
  %45 = phi i16 [ %.pre.i, %44 ], [ %41, %40 ]
  %46 = getelementptr inbounds nuw i8, ptr %1, i64 6
  store i16 0, ptr %46, align 2
  %47 = getelementptr inbounds nuw i8, ptr %1, i64 48
  store i16 -1, ptr %47, align 2
  %48 = getelementptr inbounds nuw i8, ptr %1, i64 50
  store i16 -1, ptr %48, align 2
  %49 = getelementptr inbounds nuw i8, ptr %1, i64 52
  store i16 0, ptr %49, align 2
  %50 = getelementptr inbounds nuw i8, ptr %1, i64 64
  store ptr null, ptr %50, align 8
  %51 = getelementptr inbounds nuw i8, ptr %1, i64 72
  store i32 0, ptr %51, align 8
  store i32 0, ptr %42, align 8
  %52 = and i16 %45, -3
  store i16 %52, ptr %32, align 4
  %53 = getelementptr inbounds nuw i8, ptr %1, i64 40
  %54 = load ptr, ptr %53, align 8
  %55 = load ptr, ptr @CurrentMemoryContext, align 8
  store ptr %54, ptr @CurrentMemoryContext, align 8
  %56 = tail call ptr @heap_copytuple(ptr noundef %0) #14
  store ptr %56, ptr %50, align 8
  %57 = load i16, ptr %32, align 4
  %58 = or i16 %57, 4
  store i16 %58, ptr %32, align 4
  store ptr %55, ptr @CurrentMemoryContext, align 8
  br i1 %2, label %59, label %80

59:                                               ; preds = %tts_buffer_heap_clear.exit
  tail call void @pfree(ptr noundef %0) #14
  br label %80

60:                                               ; preds = %29
  %61 = getelementptr inbounds nuw i8, ptr %5, i64 24
  %62 = load ptr, ptr %61, align 8
  tail call void %62(ptr noundef nonnull %1) #14
  %63 = getelementptr inbounds nuw i8, ptr %1, i64 16
  %64 = load ptr, ptr %63, align 8
  %65 = getelementptr inbounds nuw i8, ptr %1, i64 24
  %66 = load ptr, ptr %65, align 8
  %67 = getelementptr inbounds nuw i8, ptr %1, i64 32
  %68 = load ptr, ptr %67, align 8
  tail call void @heap_deform_tuple(ptr noundef %0, ptr noundef %64, ptr noundef %66, ptr noundef %68) #14
  %69 = getelementptr inbounds nuw i8, ptr %1, i64 4
  %70 = load i16, ptr %69, align 4
  %71 = and i16 %70, -3
  store i16 %71, ptr %69, align 4
  %72 = load ptr, ptr %63, align 8
  %73 = load i32, ptr %72, align 8
  %74 = trunc i32 %73 to i16
  %75 = getelementptr inbounds nuw i8, ptr %1, i64 6
  store i16 %74, ptr %75, align 2
  br i1 %2, label %76, label %80

76:                                               ; preds = %60
  %77 = load ptr, ptr %4, align 8
  %78 = getelementptr inbounds nuw i8, ptr %77, i64 56
  %79 = load ptr, ptr %78, align 8
  tail call void %79(ptr noundef nonnull %1) #14
  tail call void @pfree(ptr noundef %0) #14
  br label %80

80:                                               ; preds = %tts_buffer_heap_clear.exit, %59, %76, %60, %ExecStoreHeapTuple.exit
  ret void
}